target datalayout = "e-m:e-p270:32:32-p271:32:32-p272:64:64-i64:64-i128:128-f80:128-n8:16:32:64-S128"
target triple = "x86_64-pc-linux-gnu"

%struct.DdManager = type { %struct.DdNode, ptr, ptr, ptr, ptr, ptr, ptr, ptr, i32, i32, double, double, double, i32, i32, i32, i32, i32, i32, ptr, ptr, %struct.DdSubtable, i32, i32, i32, i32, i32, i32, i32, double, i32, i32, i32, ptr, i64, double, i32, ptr, ptr, ptr, ptr, ptr, ptr, ptr, i32, ptr, ptr, ptr, ptr, ptr, ptr, i32, i32, i32, double, i32, i32, i32, i32, double, double, i32, i32, i32, i32, i32, i32, i32, i32, i32, ptr, ptr, i32, i32, i32, i32, i32, i32, ptr, ptr, ptr, ptr, ptr, ptr, ptr, ptr, i32, i64, i64, i64, i32, i64, i64, double, double, double, double, double, double, i32, ptr, ptr, i64 }
%struct.DdNode = type { i32, i32, ptr, %union.anon, i64 }
%union.anon = type { %struct.DdChildren }
%struct.DdChildren = type { ptr, ptr }
%struct.DdSubtable = type { ptr, i32, i32, i32, i32, i32, i32, i32, i32, i32, i32, i32 }

; Function Attrs: nounwind uwtable
define ptr @Cudd_addSwapVariables(ptr noundef %0, ptr noundef %1, ptr noundef %2, ptr noundef %3, i32 noundef %4) #0 {
  %6 = alloca ptr, align 8
  %7 = alloca ptr, align 8
  %8 = alloca ptr, align 8
  %9 = alloca ptr, align 8
  %10 = alloca ptr, align 8
  %11 = alloca i32, align 4
  %12 = alloca ptr, align 8
  %13 = alloca i32, align 4
  %14 = alloca i32, align 4
  %15 = alloca i32, align 4
  %16 = alloca ptr, align 8
  %17 = alloca i32, align 4
  store ptr %0, ptr %7, align 8, !tbaa !3
  store ptr %1, ptr %8, align 8, !tbaa !8
  store ptr %2, ptr %9, align 8, !tbaa !44
  store ptr %3, ptr %10, align 8, !tbaa !44
  store i32 %4, ptr %11, align 4, !tbaa !10
  call void @llvm.lifetime.start.p0(i64 8, ptr %12) #6
  call void @llvm.lifetime.start.p0(i64 4, ptr %13) #6
  call void @llvm.lifetime.start.p0(i64 4, ptr %14) #6
  call void @llvm.lifetime.start.p0(i64 4, ptr %15) #6
  call void @llvm.lifetime.start.p0(i64 8, ptr %16) #6
  %18 = load ptr, ptr %7, align 8, !tbaa !3
  %19 = getelementptr inbounds nuw %struct.DdManager, ptr %18, i32 0, i32 15
  %20 = load i32, ptr %19, align 8, !tbaa !12
  %21 = sext i32 %20 to i64
  %22 = mul i64 4, %21
  %23 = call noalias ptr @malloc(i64 noundef %22) #7
  store ptr %23, ptr %16, align 8, !tbaa !37
  %24 = load ptr, ptr %16, align 8, !tbaa !37
  %25 = icmp eq ptr %24, null
  br i1 %25, label %26, label %29

26:                                               ; preds = %5
  %27 = load ptr, ptr %7, align 8, !tbaa !3
  %28 = getelementptr inbounds nuw %struct.DdManager, ptr %27, i32 0, i32 86
  store i32 1, ptr %28, align 8, !tbaa !45
  store ptr null, ptr %6, align 8
  store i32 1, ptr %17, align 4
  br label %90

29:                                               ; preds = %5
  store i32 0, ptr %13, align 4, !tbaa !10
  br label %30

30:                                               ; preds = %42, %29
  %31 = load i32, ptr %13, align 4, !tbaa !10
  %32 = load ptr, ptr %7, align 8, !tbaa !3
  %33 = getelementptr inbounds nuw %struct.DdManager, ptr %32, i32 0, i32 15
  %34 = load i32, ptr %33, align 8, !tbaa !12
  %35 = icmp slt i32 %31, %34
  br i1 %35, label %36, label %45

36:                                               ; preds = %30
  %37 = load i32, ptr %13, align 4, !tbaa !10
  %38 = load ptr, ptr %16, align 8, !tbaa !37
  %39 = load i32, ptr %13, align 4, !tbaa !10
  %40 = sext i32 %39 to i64
  %41 = getelementptr inbounds i32, ptr %38, i64 %40
  store i32 %37, ptr %41, align 4, !tbaa !10
  br label %42

42:                                               ; preds = %36
  %43 = load i32, ptr %13, align 4, !tbaa !10
  %44 = add nsw i32 %43, 1
  store i32 %44, ptr %13, align 4, !tbaa !10
  br label %30, !llvm.loop !46

45:                                               ; preds = %30
  store i32 0, ptr %13, align 4, !tbaa !10
  br label %46

46:                                               ; preds = %75, %45
  %47 = load i32, ptr %13, align 4, !tbaa !10
  %48 = load i32, ptr %11, align 4, !tbaa !10
  %49 = icmp slt i32 %47, %48
  br i1 %49, label %50, label %78

50:                                               ; preds = %46
  %51 = load ptr, ptr %9, align 8, !tbaa !44
  %52 = load i32, ptr %13, align 4, !tbaa !10
  %53 = sext i32 %52 to i64
  %54 = getelementptr inbounds ptr, ptr %51, i64 %53
  %55 = load ptr, ptr %54, align 8, !tbaa !8
  %56 = getelementptr inbounds nuw %struct.DdNode, ptr %55, i32 0, i32 0
  %57 = load i32, ptr %56, align 8, !tbaa !33
  store i32 %57, ptr %14, align 4, !tbaa !10
  %58 = load ptr, ptr %10, align 8, !tbaa !44
  %59 = load i32, ptr %13, align 4, !tbaa !10
  %60 = sext i32 %59 to i64
  %61 = getelementptr inbounds ptr, ptr %58, i64 %60
  %62 = load ptr, ptr %61, align 8, !tbaa !8
  %63 = getelementptr inbounds nuw %struct.DdNode, ptr %62, i32 0, i32 0
  %64 = load i32, ptr %63, align 8, !tbaa !33
  store i32 %64, ptr %15, align 4, !tbaa !10
  %65 = load i32, ptr %15, align 4, !tbaa !10
  %66 = load ptr, ptr %16, align 8, !tbaa !37
  %67 = load i32, ptr %14, align 4, !tbaa !10
  %68 = sext i32 %67 to i64
  %69 = getelementptr inbounds i32, ptr %66, i64 %68
  store i32 %65, ptr %69, align 4, !tbaa !10
  %70 = load i32, ptr %14, align 4, !tbaa !10
  %71 = load ptr, ptr %16, align 8, !tbaa !37
  %72 = load i32, ptr %15, align 4, !tbaa !10
  %73 = sext i32 %72 to i64
  %74 = getelementptr inbounds i32, ptr %71, i64 %73
  store i32 %70, ptr %74, align 4, !tbaa !10
  br label %75

75:                                               ; preds = %50
  %76 = load i32, ptr %13, align 4, !tbaa !10
  %77 = add nsw i32 %76, 1
  store i32 %77, ptr %13, align 4, !tbaa !10
  br label %46, !llvm.loop !47

78:                                               ; preds = %46
  %79 = load ptr, ptr %7, align 8, !tbaa !3
  %80 = load ptr, ptr %8, align 8, !tbaa !8
  %81 = load ptr, ptr %16, align 8, !tbaa !37
  %82 = call ptr @Cudd_addPermute(ptr noundef %79, ptr noundef %80, ptr noundef %81)
  store ptr %82, ptr %12, align 8, !tbaa !8
  %83 = load ptr, ptr %16, align 8, !tbaa !37
  %84 = icmp ne ptr %83, null
  br i1 %84, label %85, label %87

85:                                               ; preds = %78
  %86 = load ptr, ptr %16, align 8, !tbaa !37
  call void @free(ptr noundef %86) #6
  store ptr null, ptr %16, align 8, !tbaa !37
  br label %88

87:                                               ; preds = %78
  br label %88

88:                                               ; preds = %87, %85
  %89 = load ptr, ptr %12, align 8, !tbaa !8
  store ptr %89, ptr %6, align 8
  store i32 1, ptr %17, align 4
  br label %90

90:                                               ; preds = %88, %26
  call void @llvm.lifetime.end.p0(i64 8, ptr %16) #6
  call void @llvm.lifetime.end.p0(i64 4, ptr %15) #6
  call void @llvm.lifetime.end.p0(i64 4, ptr %14) #6
  call void @llvm.lifetime.end.p0(i64 4, ptr %13) #6
  call void @llvm.lifetime.end.p0(i64 8, ptr %12) #6
  %91 = load ptr, ptr %6, align 8
  ret ptr %91
}